; Function Attrs: mustprogress nofree norecurse nosync nounwind willreturn memory(read, inaccessiblemem: none) uwtable
define hidden noundef zeroext i1 @_ZNK13proof_checker9match_nilEPK4expr(ptr nocapture noundef nonnull readonly align 8 dereferenceable(156) %this, ptr nocapture noundef readonly %e) local_unnamed_addr #11 align 2 {
entry:
  %m_kind.i.i = getelementptr inbounds i8, ptr %e, i64 4
  %bf.load.i.i = load i32, ptr %m_kind.i.i, align 4
  %bf.clear.i.i = and i32 %bf.load.i.i, 65535
  %cmp.i = icmp eq i32 %bf.clear.i.i, 0
  br i1 %cmp.i, label %land.lhs.true, label %land.end

land.lhs.true:                                    ; preds = %entry
  %m_decl.i.i = getelementptr inbounds i8, ptr %e, i64 16
  %0 = load ptr, ptr %m_decl.i.i, align 8
  %m_info.i.i = getelementptr inbounds i8, ptr %0, i64 24
  %1 = load ptr, ptr %m_info.i.i, align 8
  %cmp.i.i = icmp eq ptr %1, null
  br i1 %cmp.i.i, label %land.end, label %_ZNK3app13get_family_idEv.exit.thread

_ZNK3app13get_family_idEv.exit.thread:            ; preds = %land.lhs.true
  %2 = load i32, ptr %1, align 8
  %m_hyp_fid9 = getelementptr inbounds i8, ptr %this, i64 88
  %3 = load i32, ptr %m_hyp_fid9, align 8
  %cmp10 = icmp eq i32 %2, %3
  br i1 %cmp10, label %cond.false.i.i6, label %land.end

cond.false.i.i6:                                  ; preds = %_ZNK3app13get_family_idEv.exit.thread
  %m_kind.i.i.i = getelementptr inbounds i8, ptr %1, i64 4
  %4 = load i32, ptr %m_kind.i.i.i, align 4
  %5 = icmp eq i32 %4, 2
  br label %land.end

land.end:                                         ; preds = %land.lhs.true, %cond.false.i.i6, %_ZNK3app13get_family_idEv.exit.thread, %entry
  %6 = phi i1 [ false, %entry ], [ false, %_ZNK3app13get_family_idEv.exit.thread ], [ %5, %cond.false.i.i6 ], [ false, %land.lhs.true ]
  ret i1 %6
}